target datalayout = "e-m:e-p270:32:32-p271:32:32-p272:64:64-i64:64-i128:128-f80:128-n8:16:32:64-S128"
target triple = "x86_64-pc-linux-gnu"

%struct.rb_transcoder = type { ptr, ptr, i32, ptr, i32, ptr, i32, i32, i32, i32, i32, i32, i64, ptr, ptr, ptr, ptr, ptr, ptr, ptr, ptr, ptr, ptr }
%struct.rb_econv_t = type { i32, i32, ptr, ptr, ptr, i64, ptr, ptr, ptr, ptr, ptr, ptr, i32, i32, i32, i32, ptr, %struct.anon, ptr, ptr }
%struct.anon = type { i32, ptr, ptr, ptr, ptr, i64, i64 }
%struct.rb_econv_elem_t = type { ptr, ptr, ptr, ptr, ptr, i32 }
%struct.rb_transcoding = type { ptr, i32, i32, i32, i64, i8, i32, i64, i64, %union.anon, i64, i64, %union.anon.0, %union.rb_transcoding_state_t }
%union.anon = type { ptr }
%union.anon.0 = type { ptr }
%union.rb_transcoding_state_t = type { ptr }

; Function Attrs: nounwind sspstrong uwtable
define internal i64 @rb_transcoding_memsize(ptr noundef %0) #0 {
  %2 = alloca ptr, align 8
  %3 = alloca i64, align 8
  %4 = alloca ptr, align 8
  store ptr %0, ptr %2, align 8, !tbaa !66
  call void @llvm.lifetime.start.p0(i64 8, ptr %3) #25
  store i64 96, ptr %3, align 8, !tbaa !12
  call void @llvm.lifetime.start.p0(i64 8, ptr %4) #25
  %5 = load ptr, ptr %2, align 8, !tbaa !66
  %6 = getelementptr inbounds nuw %struct.rb_transcoding, ptr %5, i32 0, i32 0
  %7 = load ptr, ptr %6, align 8, !tbaa !51
  store ptr %7, ptr %4, align 8, !tbaa !14
  %8 = load ptr, ptr %4, align 8, !tbaa !14
  %9 = getelementptr inbounds nuw %struct.rb_transcoder, ptr %8, i32 0, i32 12
  %10 = load i64, ptr %9, align 8, !tbaa !90
  %11 = icmp ult i64 8, %10
  br i1 %11, label %12, label %18

12:                                               ; preds = %1
  %13 = load ptr, ptr %4, align 8, !tbaa !14
  %14 = getelementptr inbounds nuw %struct.rb_transcoder, ptr %13, i32 0, i32 12
  %15 = load i64, ptr %14, align 8, !tbaa !90
  %16 = load i64, ptr %3, align 8, !tbaa !12
  %17 = add i64 %16, %15
  store i64 %17, ptr %3, align 8, !tbaa !12
  br label %18

18:                                               ; preds = %12, %1
  %19 = load ptr, ptr %4, align 8, !tbaa !14
  %20 = getelementptr inbounds nuw %struct.rb_transcoder, ptr %19, i32 0, i32 9
  %21 = load i32, ptr %20, align 4, !tbaa !70
  %22 = icmp slt i32 8, %21
  br i1 %22, label %23, label %30

23:                                               ; preds = %18
  %24 = load ptr, ptr %4, align 8, !tbaa !14
  %25 = getelementptr inbounds nuw %struct.rb_transcoder, ptr %24, i32 0, i32 9
  %26 = load i32, ptr %25, align 4, !tbaa !70
  %27 = sext i32 %26 to i64
  %28 = load i64, ptr %3, align 8, !tbaa !12
  %29 = add i64 %28, %27
  store i64 %29, ptr %3, align 8, !tbaa !12
  br label %30

30:                                               ; preds = %23, %18
  %31 = load ptr, ptr %4, align 8, !tbaa !14
  %32 = getelementptr inbounds nuw %struct.rb_transcoder, ptr %31, i32 0, i32 10
  %33 = load i32, ptr %32, align 8, !tbaa !91
  %34 = icmp slt i32 8, %33
  br i1 %34, label %35, label %42

35:                                               ; preds = %30
  %36 = load ptr, ptr %4, align 8, !tbaa !14
  %37 = getelementptr inbounds nuw %struct.rb_transcoder, ptr %36, i32 0, i32 10
  %38 = load i32, ptr %37, align 8, !tbaa !91
  %39 = sext i32 %38 to i64
  %40 = load i64, ptr %3, align 8, !tbaa !12
  %41 = add i64 %40, %39
  store i64 %41, ptr %3, align 8, !tbaa !12
  br label %42

42:                                               ; preds = %35, %30
  %43 = load i64, ptr %3, align 8, !tbaa !12
  call void @llvm.lifetime.end.p0(i64 8, ptr %4) #25
  call void @llvm.lifetime.end.p0(i64 8, ptr %3) #25
  ret i64 %43
}

; Function Attrs: nounwind sspstrong uwtable
define hidden i64 @rb_econv_memsize(ptr noundef %0) #0 {
  %2 = alloca ptr, align 8
  %3 = alloca i64, align 8
  %4 = alloca i32, align 4
  store ptr %0, ptr %2, align 8, !tbaa !30
  call void @llvm.lifetime.start.p0(i64 8, ptr %3) #25
  store i64 184, ptr %3, align 8, !tbaa !12
  call void @llvm.lifetime.start.p0(i64 4, ptr %4) #25
  %5 = load ptr, ptr %2, align 8, !tbaa !30
  %6 = getelementptr inbounds nuw %struct.rb_econv_t, ptr %5, i32 0, i32 12
  %7 = load i32, ptr %6, align 8, !tbaa !54
  %8 = icmp ne i32 %7, 0
  br i1 %8, label %9, label %15

9:                                                ; preds = %1
  %10 = load ptr, ptr %2, align 8, !tbaa !30
  %11 = getelementptr inbounds nuw %struct.rb_econv_t, ptr %10, i32 0, i32 5
  %12 = load i64, ptr %11, align 8, !tbaa !76
  %13 = load i64, ptr %3, align 8, !tbaa !12
  %14 = add i64 %13, %12
  store i64 %14, ptr %3, align 8, !tbaa !12
  br label %15

15:                                               ; preds = %9, %1
  store i32 0, ptr %4, align 4, !tbaa !29
  br label %16

16:                                               ; preds = %66, %15
  %17 = load i32, ptr %4, align 4, !tbaa !29
  %18 = load ptr, ptr %2, align 8, !tbaa !30
  %19 = getelementptr inbounds nuw %struct.rb_econv_t, ptr %18, i32 0, i32 14
  %20 = load i32, ptr %19, align 8, !tbaa !47
  %21 = icmp slt i32 %17, %20
  br i1 %21, label %22, label %69

22:                                               ; preds = %16
  %23 = load ptr, ptr %2, align 8, !tbaa !30
  %24 = getelementptr inbounds nuw %struct.rb_econv_t, ptr %23, i32 0, i32 11
  %25 = load ptr, ptr %24, align 8, !tbaa !48
  %26 = load i32, ptr %4, align 4, !tbaa !29
  %27 = sext i32 %26 to i64
  %28 = getelementptr %struct.rb_econv_elem_t, ptr %25, i64 %27
  %29 = getelementptr inbounds nuw %struct.rb_econv_elem_t, ptr %28, i32 0, i32 0
  %30 = load ptr, ptr %29, align 8, !tbaa !49
  %31 = call i64 @rb_transcoding_memsize(ptr noundef %30)
  %32 = load i64, ptr %3, align 8, !tbaa !12
  %33 = add i64 %32, %31
  store i64 %33, ptr %3, align 8, !tbaa !12
  %34 = load ptr, ptr %2, align 8, !tbaa !30
  %35 = getelementptr inbounds nuw %struct.rb_econv_t, ptr %34, i32 0, i32 11
  %36 = load ptr, ptr %35, align 8, !tbaa !48
  %37 = load i32, ptr %4, align 4, !tbaa !29
  %38 = sext i32 %37 to i64
  %39 = getelementptr %struct.rb_econv_elem_t, ptr %36, i64 %38
  %40 = getelementptr inbounds nuw %struct.rb_econv_elem_t, ptr %39, i32 0, i32 1
  %41 = load ptr, ptr %40, align 8, !tbaa !56
  %42 = icmp ne ptr %41, null
  br i1 %42, label %43, label %65

43:                                               ; preds = %22
  %44 = load ptr, ptr %2, align 8, !tbaa !30
  %45 = getelementptr inbounds nuw %struct.rb_econv_t, ptr %44, i32 0, i32 11
  %46 = load ptr, ptr %45, align 8, !tbaa !48
  %47 = load i32, ptr %4, align 4, !tbaa !29
  %48 = sext i32 %47 to i64
  %49 = getelementptr %struct.rb_econv_elem_t, ptr %46, i64 %48
  %50 = getelementptr inbounds nuw %struct.rb_econv_elem_t, ptr %49, i32 0, i32 4
  %51 = load ptr, ptr %50, align 8, !tbaa !92
  %52 = load ptr, ptr %2, align 8, !tbaa !30
  %53 = getelementptr inbounds nuw %struct.rb_econv_t, ptr %52, i32 0, i32 11
  %54 = load ptr, ptr %53, align 8, !tbaa !48
  %55 = load i32, ptr %4, align 4, !tbaa !29
  %56 = sext i32 %55 to i64
  %57 = getelementptr %struct.rb_econv_elem_t, ptr %54, i64 %56
  %58 = getelementptr inbounds nuw %struct.rb_econv_elem_t, ptr %57, i32 0, i32 1
  %59 = load ptr, ptr %58, align 8, !tbaa !56
  %60 = ptrtoint ptr %51 to i64
  %61 = ptrtoint ptr %59 to i64
  %62 = sub i64 %60, %61
  %63 = load i64, ptr %3, align 8, !tbaa !12
  %64 = add i64 %63, %62
  store i64 %64, ptr %3, align 8, !tbaa !12
  br label %65

65:                                               ; preds = %43, %22
  br label %66

66:                                               ; preds = %65
  %67 = load i32, ptr %4, align 4, !tbaa !29
  %68 = add i32 %67, 1
  store i32 %68, ptr %4, align 4, !tbaa !29
  br label %16, !llvm.loop !93

69:                                               ; preds = %16
  %70 = load ptr, ptr %2, align 8, !tbaa !30
  %71 = getelementptr inbounds nuw %struct.rb_econv_t, ptr %70, i32 0, i32 10
  %72 = load ptr, ptr %71, align 8, !tbaa !94
  %73 = load ptr, ptr %2, align 8, !tbaa !30
  %74 = getelementptr inbounds nuw %struct.rb_econv_t, ptr %73, i32 0, i32 7
  %75 = load ptr, ptr %74, align 8, !tbaa !58
  %76 = ptrtoint ptr %72 to i64
  %77 = ptrtoint ptr %75 to i64
  %78 = sub i64 %76, %77
  %79 = load i64, ptr %3, align 8, !tbaa !12
  %80 = add i64 %79, %78
  store i64 %80, ptr %3, align 8, !tbaa !12
  %81 = load ptr, ptr %2, align 8, !tbaa !30
  %82 = getelementptr inbounds nuw %struct.rb_econv_t, ptr %81, i32 0, i32 13
  %83 = load i32, ptr %82, align 4, !tbaa !95
  %84 = sext i32 %83 to i64
  %85 = mul i64 48, %84
  %86 = load i64, ptr %3, align 8, !tbaa !12
  %87 = add i64 %86, %85
  store i64 %87, ptr %3, align 8, !tbaa !12
  %88 = load i64, ptr %3, align 8, !tbaa !12
  call void @llvm.lifetime.end.p0(i64 4, ptr %4) #25
  call void @llvm.lifetime.end.p0(i64 8, ptr %3) #25
  ret i64 %88
}