; Function Attrs: nofree norecurse nosync nounwind sspstrong memory(read, inaccessiblemem: none) uwtable
define hidden i64 @rb_econv_memsize(ptr noundef readonly captures(none) %0) local_unnamed_addr #8 {
  %2 = getelementptr inbounds nuw i8, ptr %0, i64 88
  %3 = load i32, ptr %2, align 8, !tbaa !40
  %.not = icmp eq i32 %3, 0
  br i1 %.not, label %8, label %4

4:                                                ; preds = %1
  %5 = getelementptr inbounds nuw i8, ptr %0, i64 32
  %6 = load i64, ptr %5, align 8, !tbaa !96
  %7 = add i64 %6, 184
  br label %8

8:                                                ; preds = %4, %1
  %.021 = phi i64 [ %7, %4 ], [ 184, %1 ]
  %9 = getelementptr inbounds nuw i8, ptr %0, i64 96
  %10 = load i32, ptr %9, align 8, !tbaa !46
  %11 = icmp sgt i32 %10, 0
  br i1 %11, label %.lr.ph, label %._crit_edge

.lr.ph:                                           ; preds = %8
  %12 = getelementptr inbounds nuw i8, ptr %0, i64 80
  %13 = load ptr, ptr %12, align 8, !tbaa !47
  %wide.trip.count = zext nneg i32 %10 to i64
  br label %14

14:                                               ; preds = %.lr.ph, %39
  %indvars.iv = phi i64 [ 0, %.lr.ph ], [ %indvars.iv.next, %39 ]
  %.125 = phi i64 [ %.021, %.lr.ph ], [ %.2, %39 ]
  %15 = getelementptr %struct.rb_econv_elem_t, ptr %13, i64 %indvars.iv
  %16 = load ptr, ptr %15, align 8, !tbaa !63
  %.val = load ptr, ptr %16, align 8, !tbaa !65
  %17 = getelementptr inbounds nuw i8, ptr %.val, i64 72
  %18 = load i64, ptr %17, align 8, !tbaa !76
  %19 = icmp ugt i64 %18, 8
  %20 = add i64 %18, 96
  %spec.select.i = select i1 %19, i64 %20, i64 96
  %21 = getelementptr inbounds nuw i8, ptr %.val, i64 60
  %22 = load i32, ptr %21, align 4, !tbaa !77
  %23 = icmp sgt i32 %22, 8
  %narrow.i = select i1 %23, i32 %22, i32 0
  %24 = zext i32 %narrow.i to i64
  %25 = getelementptr inbounds nuw i8, ptr %.val, i64 64
  %26 = load i32, ptr %25, align 8, !tbaa !78
  %27 = icmp sgt i32 %26, 8
  %narrow1.i = select i1 %27, i32 %26, i32 0
  %28 = zext i32 %narrow1.i to i64
  %.1.i = add i64 %spec.select.i, %.125
  %.2.i = add i64 %.1.i, %24
  %29 = add i64 %.2.i, %28
  %30 = getelementptr inbounds nuw i8, ptr %15, i64 8
  %31 = load ptr, ptr %30, align 8, !tbaa !79
  %.not23 = icmp eq ptr %31, null
  br i1 %.not23, label %39, label %32

32:                                               ; preds = %14
  %33 = getelementptr inbounds nuw i8, ptr %15, i64 32
  %34 = load ptr, ptr %33, align 8, !tbaa !99
  %35 = ptrtoint ptr %34 to i64
  %36 = ptrtoint ptr %31 to i64
  %37 = sub i64 %29, %36
  %38 = add i64 %37, %35
  br label %39

39:                                               ; preds = %14, %32
  %.2 = phi i64 [ %38, %32 ], [ %29, %14 ]
  %indvars.iv.next = add nuw nsw i64 %indvars.iv, 1
  %exitcond.not = icmp eq i64 %indvars.iv.next, %wide.trip.count
  br i1 %exitcond.not, label %._crit_edge, label %14, !llvm.loop !100

._crit_edge:                                      ; preds = %39, %8
  %.1.lcssa = phi i64 [ %.021, %8 ], [ %.2, %39 ]
  %40 = getelementptr inbounds nuw i8, ptr %0, i64 72
  %41 = load ptr, ptr %40, align 8, !tbaa !101
  %42 = getelementptr inbounds nuw i8, ptr %0, i64 48
  %43 = load ptr, ptr %42, align 8, !tbaa !81
  %44 = ptrtoint ptr %41 to i64
  %45 = ptrtoint ptr %43 to i64
  %46 = getelementptr inbounds nuw i8, ptr %0, i64 92
  %47 = load i32, ptr %46, align 4, !tbaa !45
  %48 = sext i32 %47 to i64
  %49 = mul nsw i64 %48, 48
  %50 = add i64 %.1.lcssa, %44
  %51 = sub i64 %50, %45
  %52 = add i64 %51, %49
  ret i64 %52
}